target datalayout = "e-m:e-p270:32:32-p271:32:32-p272:64:64-i64:64-i128:128-f80:128-n8:16:32:64-S128"
target triple = "x86_64-pc-linux-gnu"

%struct.expert_field = type { i32, i32 }
%struct.ethertype_data_s = type { i16, i32, ptr, i32, i32 }

@hf_gmhdr_etype = internal global i32 0, align 4
@hf_gmhdr_len = internal global i32 0, align 4
@hf_gmhdr_trailer = internal global i32 0, align 4
@ett_gmhdr = internal global i32 0, align 4
@ei_gmhdr_len = internal global %struct.expert_field zeroinitializer, align 4
@proto_gmhdr = internal global i32 0, align 4
@gmhdr_summary_in_tree = internal global i8 1, align 1
@ethertype_handle = internal global ptr null, align 8
@.str.86 = private unnamed_addr constant [13 x i8] c", Length: %u\00", align 1

; Function Attrs: null_pointer_is_valid sspstrong uwtable
define internal i32 @dissect_gmhdr(ptr noundef %0, ptr noundef %1, ptr noundef %2, ptr noundef %3) #0 {
  %5 = alloca ptr, align 8
  %6 = alloca ptr, align 8
  %7 = alloca ptr, align 8
  %8 = alloca ptr, align 8
  %9 = alloca ptr, align 8
  %10 = alloca i16, align 2
  %11 = alloca i16, align 2
  %12 = alloca i8, align 1
  %13 = alloca ptr, align 8
  %14 = alloca i32, align 4
  %15 = alloca %struct.ethertype_data_s, align 8
  store ptr %0, ptr %5, align 8
  store ptr %1, ptr %6, align 8
  store ptr %2, ptr %7, align 8
  store ptr %3, ptr %8, align 8
  call void @llvm.lifetime.start.p0(i64 8, ptr %9) #5
  call void @llvm.lifetime.start.p0(i64 2, ptr %10) #5
  call void @llvm.lifetime.start.p0(i64 2, ptr %11) #5
  call void @llvm.lifetime.start.p0(i64 1, ptr %12) #5
  call void @llvm.lifetime.start.p0(i64 8, ptr %13) #5
  store ptr null, ptr %13, align 8
  call void @llvm.lifetime.start.p0(i64 4, ptr %14) #5
  store i32 0, ptr %14, align 4
  %16 = load ptr, ptr %5, align 8
  %17 = load i32, ptr %14, align 4
  %18 = call zeroext i8 @tvb_get_uint8(ptr noundef %16, i32 noundef %17)
  %19 = zext i8 %18 to i16
  store i16 %19, ptr %10, align 2
  %20 = load ptr, ptr %7, align 8
  %21 = icmp ne ptr %20, null
  br i1 %21, label %22, label %49

22:                                               ; preds = %4
  %23 = load ptr, ptr %7, align 8
  %24 = load i32, ptr @proto_gmhdr, align 4
  %25 = load ptr, ptr %5, align 8
  %26 = load i32, ptr %14, align 4
  %27 = load i16, ptr %10, align 2
  %28 = sext i16 %27 to i32
  %29 = call ptr @proto_tree_add_item(ptr noundef %23, i32 noundef %24, ptr noundef %25, i32 noundef %26, i32 noundef %28, i32 noundef 0)
  store ptr %29, ptr %9, align 8
  %30 = load i8, ptr @gmhdr_summary_in_tree, align 1, !range !6, !noundef !7
  %31 = trunc i8 %30 to i1
  br i1 %31, label %32, label %36

32:                                               ; preds = %22
  %33 = load ptr, ptr %9, align 8
  %34 = load i16, ptr %10, align 2
  %35 = sext i16 %34 to i32
  call void (ptr, ptr, ...) @proto_item_append_text(ptr noundef %33, ptr noundef @.str.86, i32 noundef %35)
  br label %36

36:                                               ; preds = %32, %22
  %37 = load ptr, ptr %9, align 8
  %38 = load i32, ptr @ett_gmhdr, align 4
  %39 = call ptr @proto_item_add_subtree(ptr noundef %37, i32 noundef %38)
  store ptr %39, ptr %13, align 8
  %40 = load ptr, ptr %5, align 8
  %41 = load ptr, ptr %6, align 8
  %42 = load ptr, ptr %13, align 8
  %43 = load i32, ptr %14, align 4
  %44 = add i32 %43, 1
  %45 = load i16, ptr %10, align 2
  %46 = sext i16 %45 to i32
  %47 = sub i32 %46, 1
  %48 = trunc i32 %47 to i16
  call void @dissect_gmtlv(ptr noundef %40, ptr noundef %41, ptr noundef %42, i32 noundef %44, i16 noundef zeroext %48)
  br label %49

49:                                               ; preds = %36, %4
  %50 = load i16, ptr %10, align 2
  %51 = sext i16 %50 to i32
  %52 = load i32, ptr %14, align 4
  %53 = add i32 %52, %51
  store i32 %53, ptr %14, align 4
  %54 = load ptr, ptr %5, align 8
  %55 = load i32, ptr %14, align 4
  %56 = call zeroext i16 @tvb_get_ntohs(ptr noundef %54, i32 noundef %55)
  store i16 %56, ptr %11, align 2
  %57 = load i32, ptr %14, align 4
  %58 = add i32 %57, 2
  store i32 %58, ptr %14, align 4
  %59 = load i16, ptr %11, align 2
  %60 = zext i16 %59 to i32
  %61 = icmp sle i32 %60, 1500
  br i1 %61, label %62, label %87

62:                                               ; preds = %49
  store i8 1, ptr %12, align 1
  %63 = load ptr, ptr %5, align 8
  %64 = load i32, ptr %14, align 4
  %65 = call i32 @tvb_captured_length_remaining(ptr noundef %63, i32 noundef %64)
  %66 = icmp sge i32 %65, 2
  br i1 %66, label %67, label %75

67:                                               ; preds = %62
  %68 = load ptr, ptr %5, align 8
  %69 = load i32, ptr %14, align 4
  %70 = call zeroext i16 @tvb_get_ntohs(ptr noundef %68, i32 noundef %69)
  %71 = zext i16 %70 to i32
  %72 = icmp eq i32 %71, 65535
  br i1 %72, label %73, label %74

73:                                               ; preds = %67
  store i8 0, ptr %12, align 1
  br label %74

74:                                               ; preds = %73, %67
  br label %75

75:                                               ; preds = %74, %62
  %76 = load i16, ptr %11, align 2
  %77 = zext i16 %76 to i32
  %78 = load i8, ptr %12, align 1, !range !6, !noundef !7
  %79 = trunc i8 %78 to i1
  %80 = load ptr, ptr %5, align 8
  %81 = load i32, ptr %14, align 4
  %82 = load ptr, ptr %6, align 8
  %83 = load ptr, ptr %7, align 8
  %84 = load ptr, ptr %13, align 8
  %85 = load i32, ptr @hf_gmhdr_len, align 4
  %86 = load i32, ptr @hf_gmhdr_trailer, align 4
  call void @dissect_802_3(i32 noundef %77, i1 noundef zeroext %79, ptr noundef %80, i32 noundef %81, ptr noundef %82, ptr noundef %83, ptr noundef %84, i32 noundef %85, i32 noundef %86, ptr noundef @ei_gmhdr_len, i32 noundef 0)
  br label %110

87:                                               ; preds = %49
  call void @llvm.lifetime.start.p0(i64 24, ptr %15) #5
  %88 = load ptr, ptr %13, align 8
  %89 = load i32, ptr @hf_gmhdr_etype, align 4
  %90 = load ptr, ptr %5, align 8
  %91 = load i32, ptr %14, align 4
  %92 = sub i32 %91, 2
  %93 = load i16, ptr %11, align 2
  %94 = zext i16 %93 to i32
  %95 = call ptr @proto_tree_add_uint(ptr noundef %88, i32 noundef %89, ptr noundef %90, i32 noundef %92, i32 noundef 2, i32 noundef %94)
  %96 = load i16, ptr %11, align 2
  %97 = getelementptr inbounds nuw %struct.ethertype_data_s, ptr %15, i32 0, i32 0
  store i16 %96, ptr %97, align 8
  %98 = load i32, ptr %14, align 4
  %99 = getelementptr inbounds nuw %struct.ethertype_data_s, ptr %15, i32 0, i32 1
  store i32 %98, ptr %99, align 4
  %100 = load ptr, ptr %13, align 8
  %101 = getelementptr inbounds nuw %struct.ethertype_data_s, ptr %15, i32 0, i32 2
  store ptr %100, ptr %101, align 8
  %102 = load i32, ptr @hf_gmhdr_trailer, align 4
  %103 = getelementptr inbounds nuw %struct.ethertype_data_s, ptr %15, i32 0, i32 3
  store i32 %102, ptr %103, align 8
  %104 = getelementptr inbounds nuw %struct.ethertype_data_s, ptr %15, i32 0, i32 4
  store i32 0, ptr %104, align 4
  %105 = load ptr, ptr @ethertype_handle, align 8
  %106 = load ptr, ptr %5, align 8
  %107 = load ptr, ptr %6, align 8
  %108 = load ptr, ptr %7, align 8
  %109 = call i32 @call_dissector_with_data(ptr noundef %105, ptr noundef %106, ptr noundef %107, ptr noundef %108, ptr noundef %15)
  call void @llvm.lifetime.end.p0(i64 24, ptr %15) #5
  br label %110

110:                                              ; preds = %87, %75
  %111 = load ptr, ptr %5, align 8
  %112 = call i32 @tvb_captured_length(ptr noundef %111)
  call void @llvm.lifetime.end.p0(i64 4, ptr %14) #5
  call void @llvm.lifetime.end.p0(i64 8, ptr %13) #5
  call void @llvm.lifetime.end.p0(i64 1, ptr %12) #5
  call void @llvm.lifetime.end.p0(i64 2, ptr %11) #5
  call void @llvm.lifetime.end.p0(i64 2, ptr %10) #5
  call void @llvm.lifetime.end.p0(i64 8, ptr %9) #5
  ret i32 %112
}