; Function Attrs: null_pointer_is_valid sspstrong uwtable
define internal i32 @dissect_gmhdr(ptr noundef %0, ptr noundef %1, ptr noundef %2, ptr readnone captures(none) %3) #0 {
  %5 = alloca %struct.ethertype_data_s, align 8
  %6 = tail call zeroext i8 @tvb_get_uint8(ptr noundef %0, i32 noundef 0)
  %.not = icmp eq ptr %2, null
  br i1 %.not, label %._crit_edge, label %7

._crit_edge:                                      ; preds = %4
  %.pre = zext i8 %6 to i32
  br label %19

7:                                                ; preds = %4
  %8 = load i32, ptr @proto_gmhdr, align 4
  %9 = zext i8 %6 to i32
  %10 = tail call ptr @proto_tree_add_item(ptr noundef nonnull %2, i32 noundef %8, ptr noundef %0, i32 noundef 0, i32 noundef %9, i32 noundef 0)
  %11 = load i8, ptr @gmhdr_summary_in_tree, align 1, !range !6, !noundef !7
  %12 = trunc nuw i8 %11 to i1
  br i1 %12, label %13, label %14

13:                                               ; preds = %7
  tail call void (ptr, ptr, ...) @proto_item_append_text(ptr noundef %10, ptr noundef nonnull @.str.86, i32 noundef %9)
  br label %14

14:                                               ; preds = %13, %7
  %15 = load i32, ptr @ett_gmhdr, align 4
  %16 = tail call ptr @proto_item_add_subtree(ptr noundef %10, i32 noundef %15)
  %17 = zext i8 %6 to i16
  %18 = add nsw i16 %17, -1
  tail call fastcc void @dissect_gmtlv(ptr noundef %0, ptr noundef %1, ptr noundef %16, i32 noundef 1, i16 noundef zeroext %18)
  br label %19

19:                                               ; preds = %._crit_edge, %14
  %.pre-phi = phi i32 [ %.pre, %._crit_edge ], [ %9, %14 ]
  %.0 = phi ptr [ null, %._crit_edge ], [ %16, %14 ]
  %20 = tail call zeroext i16 @tvb_get_ntohs(ptr noundef %0, i32 noundef %.pre-phi)
  %21 = add nuw nsw i32 %.pre-phi, 2
  %22 = zext i16 %20 to i32
  %23 = icmp ult i16 %20, 1501
  br i1 %23, label %24, label %33

24:                                               ; preds = %19
  %25 = tail call i32 @tvb_captured_length_remaining(ptr noundef %0, i32 noundef %21)
  %26 = icmp sgt i32 %25, 1
  br i1 %26, label %27, label %30

27:                                               ; preds = %24
  %28 = tail call zeroext i16 @tvb_get_ntohs(ptr noundef %0, i32 noundef %21)
  %29 = icmp ne i16 %28, -1
  br label %30

30:                                               ; preds = %27, %24
  %.042 = phi i1 [ true, %24 ], [ %29, %27 ]
  %31 = load i32, ptr @hf_gmhdr_len, align 4
  %32 = load i32, ptr @hf_gmhdr_trailer, align 4
  tail call void @dissect_802_3(i32 noundef %22, i1 noundef zeroext %.042, ptr noundef %0, i32 noundef %21, ptr noundef %1, ptr noundef %2, ptr noundef %.0, i32 noundef %31, i32 noundef %32, ptr noundef nonnull @ei_gmhdr_len, i32 noundef 0)
  br label %43

33:                                               ; preds = %19
  call void @llvm.lifetime.start.p0(i64 24, ptr nonnull %5) #5
  %34 = load i32, ptr @hf_gmhdr_etype, align 4
  %35 = tail call ptr @proto_tree_add_uint(ptr noundef %.0, i32 noundef %34, ptr noundef %0, i32 noundef %.pre-phi, i32 noundef 2, i32 noundef %22)
  store i16 %20, ptr %5, align 8
  %36 = getelementptr inbounds nuw i8, ptr %5, i64 4
  store i32 %21, ptr %36, align 4
  %37 = getelementptr inbounds nuw i8, ptr %5, i64 8
  store ptr %.0, ptr %37, align 8
  %38 = load i32, ptr @hf_gmhdr_trailer, align 4
  %39 = getelementptr inbounds nuw i8, ptr %5, i64 16
  store i32 %38, ptr %39, align 8
  %40 = getelementptr inbounds nuw i8, ptr %5, i64 20
  store i32 0, ptr %40, align 4
  %41 = load ptr, ptr @ethertype_handle, align 8
  %42 = call i32 @call_dissector_with_data(ptr noundef %41, ptr noundef %0, ptr noundef %1, ptr noundef %2, ptr noundef nonnull %5)
  call void @llvm.lifetime.end.p0(i64 24, ptr nonnull %5) #5
  br label %43

43:                                               ; preds = %33, %30
  %44 = call i32 @tvb_captured_length(ptr noundef %0)
  ret i32 %44
}